; Function Attrs: mustprogress nofree norecurse nosync nounwind willreturn memory(none) uwtable
define hidden noundef i32 @_ZN13SharedRuntime3d2iEd(double noundef %0) local_unnamed_addr #2 align 2 {
  %2 = fcmp ord double %0, 0.000000e+00
  br i1 %2, label %3, label %9

3:                                                ; preds = %1
  %4 = fcmp ult double %0, 0x41DFFFFFFFC00000
  br i1 %4, label %5, label %9

5:                                                ; preds = %3
  %6 = fcmp ugt double %0, 0xC1E0000000000000
  br i1 %6, label %7, label %9

7:                                                ; preds = %5
  %8 = fptosi double %0 to i32
  br label %9

9:                                                ; preds = %5, %3, %1, %7
  %.0 = phi i32 [ %8, %7 ], [ 0, %1 ], [ 2147483647, %3 ], [ -2147483648, %5 ]
  ret i32 %.0
}